target datalayout = "e-m:e-p270:32:32-p271:32:32-p272:64:64-i64:64-i128:128-f80:128-n8:16:32:64-S128"
target triple = "x86_64-pc-linux-gnu"

; Function Attrs: cold nounwind optsize uwtable
define void @ff_pthread_free(ptr noundef %0, ptr noundef %1) #0 {
  %3 = alloca ptr, align 8
  %4 = alloca ptr, align 8
  %5 = alloca i32, align 4
  %6 = alloca ptr, align 8
  store ptr %0, ptr %3, align 8, !tbaa !40
  store ptr %1, ptr %4, align 8, !tbaa !41
  call void @llvm.lifetime.start.p0(i64 4, ptr %5) #6
  %7 = load ptr, ptr %3, align 8, !tbaa !40
  %8 = load ptr, ptr %4, align 8, !tbaa !41
  %9 = getelementptr inbounds i32, ptr %8, i64 0
  %10 = load i32, ptr %9, align 4, !tbaa !37
  %11 = zext i32 %10 to i64
  %12 = getelementptr inbounds nuw i8, ptr %7, i64 %11
  %13 = load i32, ptr %12, align 4, !tbaa !37
  store i32 %13, ptr %5, align 4, !tbaa !37
  call void @llvm.lifetime.start.p0(i64 8, ptr %6) #6
  %14 = load ptr, ptr %4, align 8, !tbaa !41
  store ptr %14, ptr %6, align 8, !tbaa !41
  %15 = load ptr, ptr %3, align 8, !tbaa !40
  %16 = load ptr, ptr %4, align 8, !tbaa !41
  %17 = getelementptr inbounds i32, ptr %16, i64 0
  %18 = load i32, ptr %17, align 4, !tbaa !37
  %19 = zext i32 %18 to i64
  %20 = getelementptr inbounds nuw i8, ptr %15, i64 %19
  store i32 0, ptr %20, align 4, !tbaa !37
  br label %21

21:                                               ; preds = %38, %2
  %22 = load ptr, ptr %6, align 8, !tbaa !41
  %23 = getelementptr inbounds nuw i32, ptr %22, i32 1
  store ptr %23, ptr %6, align 8, !tbaa !41
  %24 = load i32, ptr %23, align 4, !tbaa !37
  %25 = icmp ne i32 %24, 0
  br i1 %25, label %26, label %29

26:                                               ; preds = %21
  %27 = load i32, ptr %5, align 4, !tbaa !37
  %28 = icmp ne i32 %27, 0
  br label %29

29:                                               ; preds = %26, %21
  %30 = phi i1 [ false, %21 ], [ %28, %26 ]
  br i1 %30, label %31, label %41

31:                                               ; preds = %29
  %32 = load ptr, ptr %3, align 8, !tbaa !40
  %33 = load ptr, ptr %6, align 8, !tbaa !41
  %34 = load i32, ptr %33, align 4, !tbaa !37
  %35 = zext i32 %34 to i64
  %36 = getelementptr inbounds nuw i8, ptr %32, i64 %35
  %37 = call i32 @pthread_mutex_destroy(ptr noundef %36) #6
  br label %38

38:                                               ; preds = %31
  %39 = load i32, ptr %5, align 4, !tbaa !37
  %40 = add i32 %39, -1
  store i32 %40, ptr %5, align 4, !tbaa !37
  br label %21, !llvm.loop !42

41:                                               ; preds = %29
  br label %42

42:                                               ; preds = %59, %41
  %43 = load ptr, ptr %6, align 8, !tbaa !41
  %44 = getelementptr inbounds nuw i32, ptr %43, i32 1
  store ptr %44, ptr %6, align 8, !tbaa !41
  %45 = load i32, ptr %44, align 4, !tbaa !37
  %46 = icmp ne i32 %45, 0
  br i1 %46, label %47, label %50

47:                                               ; preds = %42
  %48 = load i32, ptr %5, align 4, !tbaa !37
  %49 = icmp ne i32 %48, 0
  br label %50

50:                                               ; preds = %47, %42
  %51 = phi i1 [ false, %42 ], [ %49, %47 ]
  br i1 %51, label %52, label %62

52:                                               ; preds = %50
  %53 = load ptr, ptr %3, align 8, !tbaa !40
  %54 = load ptr, ptr %6, align 8, !tbaa !41
  %55 = load i32, ptr %54, align 4, !tbaa !37
  %56 = zext i32 %55 to i64
  %57 = getelementptr inbounds nuw i8, ptr %53, i64 %56
  %58 = call i32 @pthread_cond_destroy(ptr noundef %57) #6
  br label %59

59:                                               ; preds = %52
  %60 = load i32, ptr %5, align 4, !tbaa !37
  %61 = add i32 %60, -1
  store i32 %61, ptr %5, align 4, !tbaa !37
  br label %42, !llvm.loop !44

62:                                               ; preds = %50
  call void @llvm.lifetime.end.p0(i64 8, ptr %6) #6
  call void @llvm.lifetime.end.p0(i64 4, ptr %5) #6
  ret void
}