; Function Attrs: cold nounwind optsize uwtable
define void @ff_pthread_free(ptr noundef %0, ptr noundef readonly captures(none) %1) local_unnamed_addr #0 {
  %3 = load i32, ptr %1, align 4, !tbaa !37
  %4 = zext i32 %3 to i64
  %5 = getelementptr inbounds nuw i8, ptr %0, i64 %4
  %6 = load i32, ptr %5, align 4, !tbaa !37
  store i32 0, ptr %5, align 4, !tbaa !37
  %7 = getelementptr inbounds nuw i8, ptr %1, i64 4
  %8 = load i32, ptr %7, align 4, !tbaa !37
  %9 = icmp ne i32 %8, 0
  %10 = icmp ne i32 %6, 0
  %11 = select i1 %9, i1 %10, i1 false
  br i1 %11, label %.lr.ph, label %.preheader

.preheader:                                       ; preds = %.lr.ph, %2
  %.014.lcssa = phi i32 [ %6, %2 ], [ %23, %.lr.ph ]
  %12 = phi ptr [ %1, %2 ], [ %19, %.lr.ph ]
  %13 = getelementptr inbounds nuw i8, ptr %12, i64 8
  %14 = load i32, ptr %13, align 4, !tbaa !37
  %15 = icmp ne i32 %14, 0
  %16 = icmp ne i32 %.014.lcssa, 0
  %17 = select i1 %15, i1 %16, i1 false
  br i1 %17, label %.lr.ph21, label %._crit_edge

.lr.ph:                                           ; preds = %2, %.lr.ph
  %18 = phi i32 [ %25, %.lr.ph ], [ %8, %2 ]
  %19 = phi ptr [ %24, %.lr.ph ], [ %7, %2 ]
  %.01418 = phi i32 [ %23, %.lr.ph ], [ %6, %2 ]
  %20 = zext i32 %18 to i64
  %21 = getelementptr inbounds nuw i8, ptr %0, i64 %20
  %22 = tail call i32 @pthread_mutex_destroy(ptr noundef nonnull %21) #4
  %23 = add i32 %.01418, -1
  %24 = getelementptr inbounds nuw i8, ptr %19, i64 4
  %25 = load i32, ptr %24, align 4, !tbaa !37
  %26 = icmp ne i32 %25, 0
  %27 = icmp ne i32 %23, 0
  %28 = select i1 %26, i1 %27, i1 false
  br i1 %28, label %.lr.ph, label %.preheader, !llvm.loop !38

.lr.ph21:                                         ; preds = %.preheader, %.lr.ph21
  %29 = phi i32 [ %36, %.lr.ph21 ], [ %14, %.preheader ]
  %30 = phi ptr [ %35, %.lr.ph21 ], [ %13, %.preheader ]
  %.11520 = phi i32 [ %34, %.lr.ph21 ], [ %.014.lcssa, %.preheader ]
  %31 = zext i32 %29 to i64
  %32 = getelementptr inbounds nuw i8, ptr %0, i64 %31
  %33 = tail call i32 @pthread_cond_destroy(ptr noundef nonnull %32) #4
  %34 = add i32 %.11520, -1
  %35 = getelementptr inbounds nuw i8, ptr %30, i64 4
  %36 = load i32, ptr %35, align 4, !tbaa !37
  %37 = icmp ne i32 %36, 0
  %38 = icmp ne i32 %34, 0
  %39 = select i1 %37, i1 %38, i1 false
  br i1 %39, label %.lr.ph21, label %._crit_edge, !llvm.loop !40

._crit_edge:                                      ; preds = %.lr.ph21, %.preheader
  ret void
}